; ModuleID = '51/756.c'
source_filename = "51/756.c"
target datalayout = "e-m:e-p270:32:32-p271:32:32-p272:64:64-i64:64-f80:128-n8:16:32:64-S128"
target triple = "x86_64-pc-linux-gnu"

@.str = private unnamed_addr constant [3 x i8] c"%d\00", align 1
@.str.1 = private unnamed_addr constant [3 x i8] c"%s\00", align 1
@.str.2 = private unnamed_addr constant [3 x i8] c"NO\00", align 1
@.str.3 = private unnamed_addr constant [4 x i8] c"%d\0A\00", align 1
@.str.4 = private unnamed_addr constant [4 x i8] c"%s\0A\00", align 1

; Function Attrs: noinline nounwind uwtable
define dso_local i32 @main() #0 {
  %1 = alloca i32, align 4
  %2 = alloca [501 x i8], align 16
  %3 = alloca i32, align 4
  %4 = alloca i32, align 4
  %5 = alloca i32, align 4
  %6 = alloca i32, align 4
  %7 = alloca [250 x i32], align 16
  %8 = alloca i32, align 4
  %9 = alloca i32, align 4
  %10 = alloca i8*, align 8
  %11 = alloca i64, align 8
  %12 = alloca i64, align 8
  %13 = alloca i64, align 8
  store i32 0, i32* %1, align 4
  store i32 0, i32* %6, align 4
  store i32 0, i32* %9, align 4
  %14 = call i32 (i8*, ...) @__isoc99_scanf(i8* getelementptr inbounds ([3 x i8], [3 x i8]* @.str, i64 0, i64 0), i32* %3)
  %15 = getelementptr inbounds [501 x i8], [501 x i8]* %2, i64 0, i64 0
  %16 = call i32 (i8*, ...) @__isoc99_scanf(i8* getelementptr inbounds ([3 x i8], [3 x i8]* @.str.1, i64 0, i64 0), i8* %15)
  %17 = getelementptr inbounds [501 x i8], [501 x i8]* %2, i64 0, i64 0
  %18 = call i64 @strlen(i8* %17) #5
  %19 = load i32, i32* %3, align 4
  %20 = sext i32 %19 to i64
  %21 = sub i64 %18, %20
  %22 = add i64 %21, 1
  %23 = load i32, i32* %3, align 4
  %24 = add nsw i32 %23, 1
  %25 = zext i32 %24 to i64
  %26 = call i8* @llvm.stacksave()
  store i8* %26, i8** %10, align 8
  %27 = mul nuw i64 %22, %25
  %28 = alloca i8, i64 %27, align 16
  store i64 %22, i64* %11, align 8
  store i64 %25, i64* %12, align 8
  %29 = load i32, i32* %3, align 4
  %30 = add nsw i32 %29, 1
  %31 = zext i32 %30 to i64
  %32 = alloca i8, i64 %31, align 16
  store i64 %31, i64* %13, align 8
  %33 = load i32, i32* %3, align 4
  %34 = sext i32 %33 to i64
  %35 = getelementptr inbounds i8, i8* %32, i64 %34
  store i8 0, i8* %35, align 1
  store i32 0, i32* %4, align 4
  br label %36

36:                                               ; preds = %104, %0
  %37 = load i32, i32* %4, align 4
  %38 = sext i32 %37 to i64
  %39 = getelementptr inbounds [501 x i8], [501 x i8]* %2, i64 0, i64 0
  %40 = call i64 @strlen(i8* %39) #5
  %41 = load i32, i32* %3, align 4
  %42 = sext i32 %41 to i64
  %43 = sub i64 %40, %42
  %44 = icmp ule i64 %38, %43
  br i1 %44, label %45, label %107

45:                                               ; preds = %36
  %46 = load i32, i32* %4, align 4
  store i32 %46, i32* %5, align 4
  br label %47

47:                                               ; preds = %63, %45
  %48 = load i32, i32* %5, align 4
  %49 = load i32, i32* %3, align 4
  %50 = load i32, i32* %4, align 4
  %51 = add nsw i32 %49, %50
  %52 = icmp slt i32 %48, %51
  br i1 %52, label %53, label %66

53:                                               ; preds = %47
  %54 = load i32, i32* %5, align 4
  %55 = sext i32 %54 to i64
  %56 = getelementptr inbounds [501 x i8], [501 x i8]* %2, i64 0, i64 %55
  %57 = load i8, i8* %56, align 1
  %58 = load i32, i32* %5, align 4
  %59 = load i32, i32* %4, align 4
  %60 = sub nsw i32 %58, %59
  %61 = sext i32 %60 to i64
  %62 = getelementptr inbounds i8, i8* %32, i64 %61
  store i8 %57, i8* %62, align 1
  br label %63

63:                                               ; preds = %53
  %64 = load i32, i32* %5, align 4
  %65 = add nsw i32 %64, 1
  store i32 %65, i32* %5, align 4
  br label %47

66:                                               ; preds = %47
  store i32 0, i32* %5, align 4
  br label %67

67:                                               ; preds = %85, %66
  %68 = load i32, i32* %5, align 4
  %69 = load i32, i32* %6, align 4
  %70 = icmp slt i32 %68, %69
  br i1 %70, label %71, label %88

71:                                               ; preds = %67
  %72 = load i32, i32* %5, align 4
  %73 = sext i32 %72 to i64
  %74 = mul nsw i64 %73, %25
  %75 = getelementptr inbounds i8, i8* %28, i64 %74
  %76 = call i32 @strcmp(i8* %75, i8* %32) #5
  %77 = icmp eq i32 %76, 0
  br i1 %77, label %78, label %84

78:                                               ; preds = %71
  %79 = load i32, i32* %5, align 4
  %80 = sext i32 %79 to i64
  %81 = getelementptr inbounds [250 x i32], [250 x i32]* %7, i64 0, i64 %80
  %82 = load i32, i32* %81, align 4
  %83 = add nsw i32 %82, 1
  store i32 %83, i32* %81, align 4
  br label %88

84:                                               ; preds = %71
  br label %85

85:                                               ; preds = %84
  %86 = load i32, i32* %5, align 4
  %87 = add nsw i32 %86, 1
  store i32 %87, i32* %5, align 4
  br label %67

88:                                               ; preds = %78, %67
  %89 = load i32, i32* %5, align 4
  %90 = load i32, i32* %6, align 4
  %91 = icmp eq i32 %89, %90
  br i1 %91, label %92, label %103

92:                                               ; preds = %88
  %93 = load i32, i32* %6, align 4
  %94 = sext i32 %93 to i64
  %95 = mul nsw i64 %94, %25
  %96 = getelementptr inbounds i8, i8* %28, i64 %95
  %97 = call i8* @strcpy(i8* %96, i8* %32) #3
  %98 = load i32, i32* %6, align 4
  %99 = sext i32 %98 to i64
  %100 = getelementptr inbounds [250 x i32], [250 x i32]* %7, i64 0, i64 %99
  store i32 1, i32* %100, align 4
  %101 = load i32, i32* %6, align 4
  %102 = add nsw i32 %101, 1
  store i32 %102, i32* %6, align 4
  br label %103

103:                                              ; preds = %92, %88
  br label %104

104:                                              ; preds = %103
  %105 = load i32, i32* %4, align 4
  %106 = add nsw i32 %105, 1
  store i32 %106, i32* %4, align 4
  br label %36

107:                                              ; preds = %36
  %108 = getelementptr inbounds [250 x i32], [250 x i32]* %7, i64 0, i64 0
  %109 = load i32, i32* %108, align 16
  store i32 %109, i32* %8, align 4
  store i32 1, i32* %4, align 4
  br label %110

110:                                              ; preds = %127, %107
  %111 = load i32, i32* %4, align 4
  %112 = load i32, i32* %6, align 4
  %113 = icmp slt i32 %111, %112
  br i1 %113, label %114, label %130

114:                                              ; preds = %110
  %115 = load i32, i32* %4, align 4
  %116 = sext i32 %115 to i64
  %117 = getelementptr inbounds [250 x i32], [250 x i32]* %7, i64 0, i64 %116
  %118 = load i32, i32* %117, align 4
  %119 = load i32, i32* %8, align 4
  %120 = icmp sgt i32 %118, %119
  br i1 %120, label %121, label %126

121:                                              ; preds = %114
  %122 = load i32, i32* %4, align 4
  %123 = sext i32 %122 to i64
  %124 = getelementptr inbounds [250 x i32], [250 x i32]* %7, i64 0, i64 %123
  %125 = load i32, i32* %124, align 4
  store i32 %125, i32* %8, align 4
  br label %126

126:                                              ; preds = %121, %114
  br label %127

127:                                              ; preds = %126
  %128 = load i32, i32* %4, align 4
  %129 = add nsw i32 %128, 1
  store i32 %129, i32* %4, align 4
  br label %110

130:                                              ; preds = %110
  %131 = load i32, i32* %8, align 4
  %132 = icmp eq i32 %131, 1
  br i1 %132, label %133, label %135

133:                                              ; preds = %130
  %134 = call i32 (i8*, ...) @printf(i8* getelementptr inbounds ([3 x i8], [3 x i8]* @.str.2, i64 0, i64 0))
  br label %160

135:                                              ; preds = %130
  %136 = load i32, i32* %8, align 4
  %137 = call i32 (i8*, ...) @printf(i8* getelementptr inbounds ([4 x i8], [4 x i8]* @.str.3, i64 0, i64 0), i32 %136)
  store i32 0, i32* %4, align 4
  br label %138

138:                                              ; preds = %156, %135
  %139 = load i32, i32* %4, align 4
  %140 = load i32, i32* %6, align 4
  %141 = icmp slt i32 %139, %140
  br i1 %141, label %142, label %159

142:                                              ; preds = %138
  %143 = load i32, i32* %4, align 4
  %144 = sext i32 %143 to i64
  %145 = getelementptr inbounds [250 x i32], [250 x i32]* %7, i64 0, i64 %144
  %146 = load i32, i32* %145, align 4
  %147 = load i32, i32* %8, align 4
  %148 = icmp eq i32 %146, %147
  br i1 %148, label %149, label %155

149:                                              ; preds = %142
  %150 = load i32, i32* %4, align 4
  %151 = sext i32 %150 to i64
  %152 = mul nsw i64 %151, %25
  %153 = getelementptr inbounds i8, i8* %28, i64 %152
  %154 = call i32 (i8*, ...) @printf(i8* getelementptr inbounds ([4 x i8], [4 x i8]* @.str.4, i64 0, i64 0), i8* %153)
  br label %155

155:                                              ; preds = %149, %142
  br label %156

156:                                              ; preds = %155
  %157 = load i32, i32* %4, align 4
  %158 = add nsw i32 %157, 1
  store i32 %158, i32* %4, align 4
  br label %138

159:                                              ; preds = %138
  br label %160

160:                                              ; preds = %159, %133
  %161 = load i8*, i8** %10, align 8
  call void @llvm.stackrestore(i8* %161)
  %162 = load i32, i32* %1, align 4
  ret i32 %162
}

declare dso_local i32 @__isoc99_scanf(i8*, ...) #1

; Function Attrs: nounwind readonly
declare dso_local i64 @strlen(i8*) #2

; Function Attrs: nounwind
declare i8* @llvm.stacksave() #3

; Function Attrs: nounwind readonly
declare dso_local i32 @strcmp(i8*, i8*) #2

; Function Attrs: nounwind
declare dso_local i8* @strcpy(i8*, i8*) #4

declare dso_local i32 @printf(i8*, ...) #1

; Function Attrs: nounwind
declare void @llvm.stackrestore(i8*) #3


!llvm.module.flags = !{!0}
!llvm.ident = !{!1}

!0 = !{i32 1, !"wchar_size", i32 4}
!1 = !{!"clang version 10.0.0-4ubuntu1 "}
